target datalayout = "e-m:e-p270:32:32-p271:32:32-p272:64:64-i64:64-i128:128-f80:128-n8:16:32:64-S128"
target triple = "x86_64-unknown-linux-gnu"

%struct.EHCIState = type { %struct.USBBus, ptr, ptr, %struct.MemoryRegion, ptr, %struct.MemoryRegion, %struct.MemoryRegion, %struct.MemoryRegion, i32, i8, i16, i16, i16, i16, i32, [16 x i8], %union.anon.5, [6 x i32], ptr, ptr, i8, i32, i32, [6 x %struct.USBPort], [6 x ptr], i32, i32, %union.EHCIQueueHead, %union.EHCIQueueHead, i32, i32, %struct.USBPacket, %struct.QEMUSGList, i64, i32, i32, i8, ptr }
%struct.USBBus = type { %struct.BusState, ptr, i32, i32, i32, %union.anon, %union.anon.0, %union.anon.1 }
%struct.BusState = type { %struct.Object, ptr, ptr, ptr, i32, i8, i8, i32, %union.BusChildHead, %struct.BusStateEntry, %struct.ResettableState }
%struct.Object = type { ptr, ptr, ptr, i32, ptr }
%union.BusChildHead = type { %struct.QTailQLink }
%struct.QTailQLink = type { ptr, ptr }
%struct.BusStateEntry = type { ptr, ptr }
%struct.ResettableState = type { i32, i8, i8 }
%union.anon = type { %struct.QTailQLink }
%union.anon.0 = type { %struct.QTailQLink }
%union.anon.1 = type { %struct.QTailQLink }
%struct.MemoryRegion = type { %struct.Object, i8, i8, i8, i8, i8, i8, i8, i8, i8, i8, ptr, ptr, ptr, ptr, ptr, ptr, i32, i128, i64, ptr, i64, i8, i8, i8, i8, i8, ptr, i64, i32, %union.anon.2, %union.anon.3, %union.anon.4, ptr, i32, ptr, ptr, i8 }
%union.anon.2 = type { %struct.QTailQLink }
%union.anon.3 = type { %struct.QTailQLink }
%union.anon.4 = type { %struct.QTailQLink }
%union.anon.5 = type { [17 x i32] }
%struct.USBPort = type { ptr, i32, i32, [16 x i8], ptr, ptr, i32, %union.anon.6 }
%union.anon.6 = type { %struct.QTailQLink }
%union.EHCIQueueHead = type { %struct.QTailQLink }
%struct.USBPacket = type { i32, i64, ptr, i32, %struct.QEMUIOVector, i64, i8, i8, i32, i32, i32, ptr, %union.anon.10, %union.anon.11 }
%struct.QEMUIOVector = type { ptr, i32, %union.anon.7 }
%union.anon.7 = type { %struct.anon.8 }
%struct.anon.8 = type { i32, %struct.iovec }
%struct.iovec = type { ptr, i64 }
%union.anon.10 = type { %struct.QTailQLink }
%union.anon.11 = type { %struct.QTailQLink }
%struct.QEMUSGList = type { ptr, i32, i32, i64, ptr, ptr }
%struct.USBDevice = type { %struct.DeviceState, ptr, ptr, ptr, ptr, i32, ptr, ptr, i32, i32, i8, [32 x i8], i32, i8, i32, [8 x i8], [4096 x i8], i32, i32, i32, i32, %struct.USBEndpoint, [15 x %struct.USBEndpoint], [15 x %struct.USBEndpoint], %struct.anon.13, ptr, ptr, i32, i32, [16 x i32], ptr, [16 x ptr] }
%struct.DeviceState = type { %struct.Object, ptr, ptr, i8, i8, i64, ptr, i32, i8, ptr, %struct.NamedGPIOListHead, %struct.NamedClockListHead, %struct.BusStateHead, i32, i32, i32, %struct.ResettableState, ptr, %struct.MemReentrancyGuard }
%struct.NamedGPIOListHead = type { ptr }
%struct.NamedClockListHead = type { ptr }
%struct.BusStateHead = type { ptr }
%struct.MemReentrancyGuard = type { i8 }
%struct.USBEndpoint = type { i8, i8, i8, i8, i32, i32, i8, i8, ptr, %union.anon.12 }
%union.anon.12 = type { %struct.QTailQLink }
%struct.anon.13 = type { ptr }
%struct.anon = type { i32, i32, i32, i32, i32, i32, i32, [9 x i32], i32 }
%struct.EHCIQueue = type { ptr, %union.anon.16, i32, i64, i32, i32, %struct.EHCIqh, i32, i32, i32, ptr, %union.anon.17 }
%union.anon.16 = type { %struct.QTailQLink }
%struct.EHCIqh = type { i32, i32, i32, i32, i32, i32, i32, [5 x i32] }
%union.anon.17 = type { %struct.QTailQLink }
%struct.timeval = type { i64, i64 }

@trace_events_enabled_count = external global i32, align 4
@_TRACE_USB_EHCI_RESET_DSTATE = external global i16, align 2
@message_with_timestamp = external global i8, align 1
@.str.32 = private unnamed_addr constant [43 x i8] c"%d@%zu.%06zu:usb_ehci_reset === RESET ===\0A\00", align 1
@.str.33 = private unnamed_addr constant [30 x i8] c"usb_ehci_reset === RESET ===\0A\00", align 1
@qemu_loglevel = external global i32, align 4
@.str.36 = private unnamed_addr constant [34 x i8] c"guest stopped busy async schedule\00", align 1

; Function Attrs: nounwind sspstrong uwtable
define internal zeroext i1 @qemu_loglevel_mask(i32 noundef %mask) #0 {
entry:
  %mask.addr = alloca i32, align 4
  store i32 %mask, ptr %mask.addr, align 4
  %0 = load i32, ptr @qemu_loglevel, align 4
  %1 = load i32, ptr %mask.addr, align 4
  %and = and i32 %0, %1
  %cmp = icmp ne i32 %and, 0
  ret i1 %cmp
}

; Function Attrs: nounwind sspstrong uwtable
define internal void @_nocheck__trace_usb_ehci_reset() #0 {
entry:
  %_now = alloca %struct.timeval, align 8
  %0 = load i32, ptr @trace_events_enabled_count, align 4
  %tobool = icmp ne i32 %0, 0
  %lnot = xor i1 %tobool, true
  %lnot1 = xor i1 %lnot, true
  %lnot.ext = zext i1 %lnot1 to i32
  %conv = sext i32 %lnot.ext to i64
  %tobool2 = icmp ne i64 %conv, 0
  br i1 %tobool2, label %land.lhs.true, label %if.end11

land.lhs.true:                                    ; preds = %entry
  %1 = load i16, ptr @_TRACE_USB_EHCI_RESET_DSTATE, align 2
  %conv3 = zext i16 %1 to i32
  %tobool4 = icmp ne i32 %conv3, 0
  br i1 %tobool4, label %land.lhs.true5, label %if.end11

land.lhs.true5:                                   ; preds = %land.lhs.true
  %call = call zeroext i1 @qemu_loglevel_mask(i32 noundef 32768)
  br i1 %call, label %if.then, label %if.end11

if.then:                                          ; preds = %land.lhs.true5
  %2 = load i8, ptr @message_with_timestamp, align 1
  %tobool7 = trunc i8 %2 to i1
  br i1 %tobool7, label %if.then8, label %if.else

if.then8:                                         ; preds = %if.then
  %call9 = call i32 @gettimeofday(ptr noundef %_now, ptr noundef null) #10
  %call10 = call i32 @qemu_get_thread_id()
  %tv_sec = getelementptr inbounds %struct.timeval, ptr %_now, i32 0, i32 0
  %3 = load i64, ptr %tv_sec, align 8
  %tv_usec = getelementptr inbounds %struct.timeval, ptr %_now, i32 0, i32 1
  %4 = load i64, ptr %tv_usec, align 8
  call void (ptr, ...) @qemu_log(ptr noundef @.str.32, i32 noundef %call10, i64 noundef %3, i64 noundef %4)
  br label %if.end

if.else:                                          ; preds = %if.then
  call void (ptr, ...) @qemu_log(ptr noundef @.str.33)
  br label %if.end

if.end:                                           ; preds = %if.else, %if.then8
  br label %if.end11

if.end11:                                         ; preds = %if.end, %land.lhs.true5, %land.lhs.true, %entry
  ret void
}

; Function Attrs: nounwind sspstrong uwtable
define internal void @ehci_queues_rip_all(ptr noundef %ehci, i32 noundef %async) #0 {
entry:
  %ehci.addr = alloca ptr, align 8
  %async.addr = alloca i32, align 4
  %head = alloca ptr, align 8
  %warn = alloca ptr, align 8
  %q = alloca ptr, align 8
  %tmp = alloca ptr, align 8
  store ptr %ehci, ptr %ehci.addr, align 8
  store i32 %async, ptr %async.addr, align 4
  %0 = load i32, ptr %async.addr, align 4
  %tobool = icmp ne i32 %0, 0
  br i1 %tobool, label %cond.true, label %cond.false

cond.true:                                        ; preds = %entry
  %1 = load ptr, ptr %ehci.addr, align 8
  %aqueues = getelementptr inbounds %struct.EHCIState, ptr %1, i32 0, i32 27
  br label %cond.end

cond.false:                                       ; preds = %entry
  %2 = load ptr, ptr %ehci.addr, align 8
  %pqueues = getelementptr inbounds %struct.EHCIState, ptr %2, i32 0, i32 28
  br label %cond.end

cond.end:                                         ; preds = %cond.false, %cond.true
  %cond = phi ptr [ %aqueues, %cond.true ], [ %pqueues, %cond.false ]
  store ptr %cond, ptr %head, align 8
  %3 = load i32, ptr %async.addr, align 4
  %tobool1 = icmp ne i32 %3, 0
  %cond2 = select i1 %tobool1, ptr @.str.36, ptr null
  store ptr %cond2, ptr %warn, align 8
  %4 = load ptr, ptr %head, align 8
  %5 = load ptr, ptr %4, align 8
  store ptr %5, ptr %q, align 8
  br label %for.cond

for.cond:                                         ; preds = %for.inc, %cond.end
  %6 = load ptr, ptr %q, align 8
  %tobool3 = icmp ne ptr %6, null
  br i1 %tobool3, label %land.rhs, label %land.end

land.rhs:                                         ; preds = %for.cond
  %7 = load ptr, ptr %q, align 8
  %next = getelementptr inbounds %struct.EHCIQueue, ptr %7, i32 0, i32 1
  %8 = load ptr, ptr %next, align 8
  store ptr %8, ptr %tmp, align 8
  br label %land.end

land.end:                                         ; preds = %land.rhs, %for.cond
  %9 = phi i1 [ false, %for.cond ], [ true, %land.rhs ]
  br i1 %9, label %for.body, label %for.end

for.body:                                         ; preds = %land.end
  %10 = load ptr, ptr %q, align 8
  %11 = load ptr, ptr %warn, align 8
  call void @ehci_free_queue(ptr noundef %10, ptr noundef %11)
  br label %for.inc

for.inc:                                          ; preds = %for.body
  %12 = load ptr, ptr %tmp, align 8
  store ptr %12, ptr %q, align 8
  br label %for.cond, !llvm.loop !8

for.end:                                          ; preds = %land.end
  ret void
}

; Function Attrs: nounwind sspstrong uwtable
define internal void @trace_usb_ehci_reset() #0 {
entry:
  call void @_nocheck__trace_usb_ehci_reset()
  ret void
}

; Function Attrs: nounwind sspstrong uwtable
define dso_local void @ehci_reset(ptr noundef %opaque) #0 {
entry:
  %opaque.addr = alloca ptr, align 8
  %s = alloca ptr, align 8
  %i = alloca i32, align 4
  %devs = alloca [6 x ptr], align 16
  store ptr %opaque, ptr %opaque.addr, align 8
  %0 = load ptr, ptr %opaque.addr, align 8
  store ptr %0, ptr %s, align 8
  call void @trace_usb_ehci_reset()
  store i32 0, ptr %i, align 4
  br label %for.cond

for.cond:                                         ; preds = %for.inc, %entry
  %1 = load i32, ptr %i, align 4
  %cmp = icmp slt i32 %1, 6
  br i1 %cmp, label %for.body, label %for.end

for.body:                                         ; preds = %for.cond
  %2 = load ptr, ptr %s, align 8
  %ports = getelementptr inbounds %struct.EHCIState, ptr %2, i32 0, i32 23
  %3 = load i32, ptr %i, align 4
  %idxprom = sext i32 %3 to i64
  %arrayidx = getelementptr [6 x %struct.USBPort], ptr %ports, i64 0, i64 %idxprom
  %dev = getelementptr inbounds %struct.USBPort, ptr %arrayidx, i32 0, i32 0
  %4 = load ptr, ptr %dev, align 8
  %5 = load i32, ptr %i, align 4
  %idxprom1 = sext i32 %5 to i64
  %arrayidx2 = getelementptr [6 x ptr], ptr %devs, i64 0, i64 %idxprom1
  store ptr %4, ptr %arrayidx2, align 8
  %6 = load i32, ptr %i, align 4
  %idxprom3 = sext i32 %6 to i64
  %arrayidx4 = getelementptr [6 x ptr], ptr %devs, i64 0, i64 %idxprom3
  %7 = load ptr, ptr %arrayidx4, align 8
  %tobool = icmp ne ptr %7, null
  br i1 %tobool, label %land.lhs.true, label %if.end

land.lhs.true:                                    ; preds = %for.body
  %8 = load i32, ptr %i, align 4
  %idxprom5 = sext i32 %8 to i64
  %arrayidx6 = getelementptr [6 x ptr], ptr %devs, i64 0, i64 %idxprom5
  %9 = load ptr, ptr %arrayidx6, align 8
  %attached = getelementptr inbounds %struct.USBDevice, ptr %9, i32 0, i32 13
  %10 = load i8, ptr %attached, align 8
  %tobool7 = trunc i8 %10 to i1
  br i1 %tobool7, label %if.then, label %if.end

if.then:                                          ; preds = %land.lhs.true
  %11 = load ptr, ptr %s, align 8
  %ports8 = getelementptr inbounds %struct.EHCIState, ptr %11, i32 0, i32 23
  %12 = load i32, ptr %i, align 4
  %idxprom9 = sext i32 %12 to i64
  %arrayidx10 = getelementptr [6 x %struct.USBPort], ptr %ports8, i64 0, i64 %idxprom9
  call void @usb_detach(ptr noundef %arrayidx10)
  br label %if.end

if.end:                                           ; preds = %if.then, %land.lhs.true, %for.body
  br label %for.inc

for.inc:                                          ; preds = %if.end
  %13 = load i32, ptr %i, align 4
  %inc = add i32 %13, 1
  store i32 %inc, ptr %i, align 4
  br label %for.cond, !llvm.loop !5

for.end:                                          ; preds = %for.cond
  %14 = load ptr, ptr %s, align 8
  %15 = getelementptr inbounds %struct.EHCIState, ptr %14, i32 0, i32 16
  call void @llvm.memset.p0.i64(ptr align 4 %15, i8 0, i64 68, i1 false)
  %16 = load ptr, ptr %s, align 8
  %portsc = getelementptr inbounds %struct.EHCIState, ptr %16, i32 0, i32 17
  call void @llvm.memset.p0.i64(ptr align 8 %portsc, i8 0, i64 24, i1 false)
  %17 = load ptr, ptr %s, align 8
  %18 = getelementptr inbounds %struct.EHCIState, ptr %17, i32 0, i32 16
  %usbcmd = getelementptr inbounds %struct.anon, ptr %18, i32 0, i32 0
  store i32 524288, ptr %usbcmd, align 4
  %19 = load ptr, ptr %s, align 8
  %20 = getelementptr inbounds %struct.EHCIState, ptr %19, i32 0, i32 16
  %usbsts = getelementptr inbounds %struct.anon, ptr %20, i32 0, i32 1
  store i32 4096, ptr %usbsts, align 4
  %21 = load ptr, ptr %s, align 8
  %usbsts_pending = getelementptr inbounds %struct.EHCIState, ptr %21, i32 0, i32 25
  store i32 0, ptr %usbsts_pending, align 16
  %22 = load ptr, ptr %s, align 8
  %usbsts_frindex = getelementptr inbounds %struct.EHCIState, ptr %22, i32 0, i32 26
  store i32 0, ptr %usbsts_frindex, align 4
  %23 = load ptr, ptr %s, align 8
  call void @ehci_update_irq(ptr noundef %23)
  %24 = load ptr, ptr %s, align 8
  %astate = getelementptr inbounds %struct.EHCIState, ptr %24, i32 0, i32 21
  store i32 1000, ptr %astate, align 4
  %25 = load ptr, ptr %s, align 8
  %pstate = getelementptr inbounds %struct.EHCIState, ptr %25, i32 0, i32 22
  store i32 1000, ptr %pstate, align 8
  store i32 0, ptr %i, align 4
  br label %for.cond11

for.cond11:                                       ; preds = %for.inc40, %for.end
  %26 = load i32, ptr %i, align 4
  %cmp12 = icmp slt i32 %26, 6
  br i1 %cmp12, label %for.body13, label %for.end42

for.body13:                                       ; preds = %for.cond11
  %27 = load ptr, ptr %s, align 8
  %companion_ports = getelementptr inbounds %struct.EHCIState, ptr %27, i32 0, i32 24
  %28 = load i32, ptr %i, align 4
  %idxprom14 = sext i32 %28 to i64
  %arrayidx15 = getelementptr [6 x ptr], ptr %companion_ports, i64 0, i64 %idxprom14
  %29 = load ptr, ptr %arrayidx15, align 8
  %tobool16 = icmp ne ptr %29, null
  br i1 %tobool16, label %if.then17, label %if.else

if.then17:                                        ; preds = %for.body13
  %30 = load ptr, ptr %s, align 8
  %portsc18 = getelementptr inbounds %struct.EHCIState, ptr %30, i32 0, i32 17
  %31 = load i32, ptr %i, align 4
  %idxprom19 = sext i32 %31 to i64
  %arrayidx20 = getelementptr [6 x i32], ptr %portsc18, i64 0, i64 %idxprom19
  store i32 12288, ptr %arrayidx20, align 4
  br label %if.end24

if.else:                                          ; preds = %for.body13
  %32 = load ptr, ptr %s, align 8
  %portsc21 = getelementptr inbounds %struct.EHCIState, ptr %32, i32 0, i32 17
  %33 = load i32, ptr %i, align 4
  %idxprom22 = sext i32 %33 to i64
  %arrayidx23 = getelementptr [6 x i32], ptr %portsc21, i64 0, i64 %idxprom22
  store i32 4096, ptr %arrayidx23, align 4
  br label %if.end24

if.end24:                                         ; preds = %if.else, %if.then17
  %34 = load i32, ptr %i, align 4
  %idxprom25 = sext i32 %34 to i64
  %arrayidx26 = getelementptr [6 x ptr], ptr %devs, i64 0, i64 %idxprom25
  %35 = load ptr, ptr %arrayidx26, align 8
  %tobool27 = icmp ne ptr %35, null
  br i1 %tobool27, label %land.lhs.true28, label %if.end39

land.lhs.true28:                                  ; preds = %if.end24
  %36 = load i32, ptr %i, align 4
  %idxprom29 = sext i32 %36 to i64
  %arrayidx30 = getelementptr [6 x ptr], ptr %devs, i64 0, i64 %idxprom29
  %37 = load ptr, ptr %arrayidx30, align 8
  %attached31 = getelementptr inbounds %struct.USBDevice, ptr %37, i32 0, i32 13
  %38 = load i8, ptr %attached31, align 8
  %tobool32 = trunc i8 %38 to i1
  br i1 %tobool32, label %if.then33, label %if.end39

if.then33:                                        ; preds = %land.lhs.true28
  %39 = load ptr, ptr %s, align 8
  %ports34 = getelementptr inbounds %struct.EHCIState, ptr %39, i32 0, i32 23
  %40 = load i32, ptr %i, align 4
  %idxprom35 = sext i32 %40 to i64
  %arrayidx36 = getelementptr [6 x %struct.USBPort], ptr %ports34, i64 0, i64 %idxprom35
  call void @usb_attach(ptr noundef %arrayidx36)
  %41 = load i32, ptr %i, align 4
  %idxprom37 = sext i32 %41 to i64
  %arrayidx38 = getelementptr [6 x ptr], ptr %devs, i64 0, i64 %idxprom37
  %42 = load ptr, ptr %arrayidx38, align 8
  call void @usb_device_reset(ptr noundef %42)
  br label %if.end39

if.end39:                                         ; preds = %if.then33, %land.lhs.true28, %if.end24
  br label %for.inc40

for.inc40:                                        ; preds = %if.end39
  %43 = load i32, ptr %i, align 4
  %inc41 = add i32 %43, 1
  store i32 %inc41, ptr %i, align 4
  br label %for.cond11, !llvm.loop !7

for.end42:                                        ; preds = %for.cond11
  %44 = load ptr, ptr %s, align 8
  call void @ehci_queues_rip_all(ptr noundef %44, i32 noundef 0)
  %45 = load ptr, ptr %s, align 8
  call void @ehci_queues_rip_all(ptr noundef %45, i32 noundef 1)
  %46 = load ptr, ptr %s, align 8
  %frame_timer = getelementptr inbounds %struct.EHCIState, ptr %46, i32 0, i32 18
  %47 = load ptr, ptr %frame_timer, align 16
  call void @timer_del(ptr noundef %47)
  %48 = load ptr, ptr %s, align 8
  %async_bh = getelementptr inbounds %struct.EHCIState, ptr %48, i32 0, i32 19
  %49 = load ptr, ptr %async_bh, align 8
  call void @qemu_bh_cancel(ptr noundef %49)
  ret void
}