; Function Attrs: nounwind sspstrong uwtable
define dso_local void @ehci_reset(ptr noundef %opaque) local_unnamed_addr #0 {
entry:
  %_now.i.i = alloca %struct.timeval, align 8
  %devs = alloca [6 x ptr], align 16
  call void @llvm.lifetime.start.p0(i64 16, ptr nonnull %_now.i.i)
  %0 = load i32, ptr @trace_events_enabled_count, align 4
  %tobool.i.i = icmp ne i32 %0, 0
  %1 = load i16, ptr @_TRACE_USB_EHCI_RESET_DSTATE, align 2
  %tobool4.i.i = icmp ne i16 %1, 0
  %or.cond.i.i = select i1 %tobool.i.i, i1 %tobool4.i.i, i1 false
  br i1 %or.cond.i.i, label %land.lhs.true5.i.i, label %trace_usb_ehci_reset.exit

land.lhs.true5.i.i:                               ; preds = %entry
  %2 = load i32, ptr @qemu_loglevel, align 4
  %and.i.i.i = and i32 %2, 32768
  %cmp.i.not.i.i = icmp eq i32 %and.i.i.i, 0
  br i1 %cmp.i.not.i.i, label %trace_usb_ehci_reset.exit, label %if.then.i.i

if.then.i.i:                                      ; preds = %land.lhs.true5.i.i
  %3 = load i8, ptr @message_with_timestamp, align 1
  %tobool7.i.i = trunc i8 %3 to i1
  br i1 %tobool7.i.i, label %if.then8.i.i, label %if.else.i.i

if.then8.i.i:                                     ; preds = %if.then.i.i
  %call9.i.i = call i32 @gettimeofday(ptr noundef nonnull %_now.i.i, ptr noundef null) #17
  %call10.i.i = tail call i32 @qemu_get_thread_id() #17
  %4 = load i64, ptr %_now.i.i, align 8
  %tv_usec.i.i = getelementptr inbounds nuw i8, ptr %_now.i.i, i64 8
  %5 = load i64, ptr %tv_usec.i.i, align 8
  tail call void (ptr, ...) @qemu_log(ptr noundef nonnull @.str.32, i32 noundef %call10.i.i, i64 noundef %4, i64 noundef %5) #17
  br label %trace_usb_ehci_reset.exit

if.else.i.i:                                      ; preds = %if.then.i.i
  tail call void (ptr, ...) @qemu_log(ptr noundef nonnull @.str.33) #17
  br label %trace_usb_ehci_reset.exit

trace_usb_ehci_reset.exit:                        ; preds = %entry, %land.lhs.true5.i.i, %if.then8.i.i, %if.else.i.i
  call void @llvm.lifetime.end.p0(i64 16, ptr nonnull %_now.i.i)
  %ports = getelementptr inbounds nuw i8, ptr %opaque, i64 1472
  br label %for.body

for.body:                                         ; preds = %trace_usb_ehci_reset.exit, %for.inc
  %indvars.iv = phi i64 [ 0, %trace_usb_ehci_reset.exit ], [ %indvars.iv.next, %for.inc ]
  %arrayidx = getelementptr [6 x %struct.USBPort], ptr %ports, i64 0, i64 %indvars.iv
  %6 = load ptr, ptr %arrayidx, align 8
  %arrayidx2 = getelementptr [6 x ptr], ptr %devs, i64 0, i64 %indvars.iv
  store ptr %6, ptr %arrayidx2, align 8
  %tobool.not = icmp eq ptr %6, null
  br i1 %tobool.not, label %for.inc, label %land.lhs.true

land.lhs.true:                                    ; preds = %for.body
  %attached = getelementptr inbounds nuw i8, ptr %6, i64 264
  %7 = load i8, ptr %attached, align 8
  %tobool7 = trunc i8 %7 to i1
  br i1 %tobool7, label %if.then, label %for.inc

if.then:                                          ; preds = %land.lhs.true
  tail call void @usb_detach(ptr noundef nonnull %arrayidx) #17
  br label %for.inc

for.inc:                                          ; preds = %for.body, %land.lhs.true, %if.then
  %indvars.iv.next = add nuw nsw i64 %indvars.iv, 1
  %exitcond.not = icmp eq i64 %indvars.iv.next, 6
  br i1 %exitcond.not, label %for.end, label %for.body, !llvm.loop !5

for.end:                                          ; preds = %for.inc
  %8 = getelementptr inbounds nuw i8, ptr %opaque, i64 1348
  %portsc = getelementptr inbounds nuw i8, ptr %opaque, i64 1416
  %9 = getelementptr inbounds nuw i8, ptr %opaque, i64 1356
  tail call void @llvm.memset.p0.i64(ptr noundef nonnull align 4 dereferenceable(84) %9, i8 0, i64 84, i1 false)
  store i32 524288, ptr %8, align 4
  %usbsts = getelementptr inbounds nuw i8, ptr %opaque, i64 1352
  store i32 4096, ptr %usbsts, align 4
  %usbsts_pending = getelementptr inbounds nuw i8, ptr %opaque, i64 1952
  store i32 0, ptr %usbsts_pending, align 16
  %usbsts_frindex = getelementptr inbounds nuw i8, ptr %opaque, i64 1956
  store i32 0, ptr %usbsts_frindex, align 4
  tail call fastcc void @ehci_update_irq(ptr noundef nonnull %opaque)
  %astate = getelementptr inbounds nuw i8, ptr %opaque, i64 1460
  store i32 1000, ptr %astate, align 4
  %pstate = getelementptr inbounds nuw i8, ptr %opaque, i64 1464
  store i32 1000, ptr %pstate, align 8
  %companion_ports = getelementptr inbounds nuw i8, ptr %opaque, i64 1904
  br label %for.body13

for.body13:                                       ; preds = %for.end, %for.inc40
  %indvars.iv45 = phi i64 [ 0, %for.end ], [ %indvars.iv.next46, %for.inc40 ]
  %arrayidx15 = getelementptr [6 x ptr], ptr %companion_ports, i64 0, i64 %indvars.iv45
  %10 = load ptr, ptr %arrayidx15, align 8
  %tobool16.not = icmp eq ptr %10, null
  %spec.select = select i1 %tobool16.not, i32 4096, i32 12288
  %11 = getelementptr [6 x i32], ptr %portsc, i64 0, i64 %indvars.iv45
  store i32 %spec.select, ptr %11, align 4
  %arrayidx26 = getelementptr [6 x ptr], ptr %devs, i64 0, i64 %indvars.iv45
  %12 = load ptr, ptr %arrayidx26, align 8
  %tobool27.not = icmp eq ptr %12, null
  br i1 %tobool27.not, label %for.inc40, label %land.lhs.true28

land.lhs.true28:                                  ; preds = %for.body13
  %attached31 = getelementptr inbounds nuw i8, ptr %12, i64 264
  %13 = load i8, ptr %attached31, align 8
  %tobool32 = trunc i8 %13 to i1
  br i1 %tobool32, label %if.then33, label %for.inc40

if.then33:                                        ; preds = %land.lhs.true28
  %arrayidx36 = getelementptr [6 x %struct.USBPort], ptr %ports, i64 0, i64 %indvars.iv45
  tail call void @usb_attach(ptr noundef %arrayidx36) #17
  tail call void @usb_device_reset(ptr noundef nonnull %12) #17
  br label %for.inc40

for.inc40:                                        ; preds = %for.body13, %land.lhs.true28, %if.then33
  %indvars.iv.next46 = add nuw nsw i64 %indvars.iv45, 1
  %exitcond48.not = icmp eq i64 %indvars.iv.next46, 6
  br i1 %exitcond48.not, label %for.end42, label %for.body13, !llvm.loop !7

for.end42:                                        ; preds = %for.inc40
  %cond.i = getelementptr inbounds nuw i8, ptr %opaque, i64 1976
  %14 = load ptr, ptr %cond.i, align 8
  %tobool3.not5.i = icmp eq ptr %14, null
  br i1 %tobool3.not5.i, label %ehci_queues_rip_all.exit, label %land.rhs.i

land.rhs.i:                                       ; preds = %for.end42, %land.rhs.i
  %q.06.i = phi ptr [ %15, %land.rhs.i ], [ %14, %for.end42 ]
  %next.i = getelementptr inbounds nuw i8, ptr %q.06.i, i64 8
  %15 = load ptr, ptr %next.i, align 8
  tail call fastcc void @ehci_free_queue(ptr noundef %q.06.i, ptr noundef null)
  %tobool3.not.i = icmp eq ptr %15, null
  br i1 %tobool3.not.i, label %ehci_queues_rip_all.exit, label %land.rhs.i, !llvm.loop !8

ehci_queues_rip_all.exit:                         ; preds = %land.rhs.i, %for.end42
  %cond.i35 = getelementptr inbounds nuw i8, ptr %opaque, i64 1960
  %16 = load ptr, ptr %cond.i35, align 8
  %tobool3.not5.i36 = icmp eq ptr %16, null
  br i1 %tobool3.not5.i36, label %ehci_queues_rip_all.exit41, label %land.rhs.i37

land.rhs.i37:                                     ; preds = %ehci_queues_rip_all.exit, %land.rhs.i37
  %q.06.i38 = phi ptr [ %17, %land.rhs.i37 ], [ %16, %ehci_queues_rip_all.exit ]
  %next.i39 = getelementptr inbounds nuw i8, ptr %q.06.i38, i64 8
  %17 = load ptr, ptr %next.i39, align 8
  tail call fastcc void @ehci_free_queue(ptr noundef %q.06.i38, ptr noundef nonnull @.str.36)
  %tobool3.not.i40 = icmp eq ptr %17, null
  br i1 %tobool3.not.i40, label %ehci_queues_rip_all.exit41, label %land.rhs.i37, !llvm.loop !8

ehci_queues_rip_all.exit41:                       ; preds = %land.rhs.i37, %ehci_queues_rip_all.exit
  %frame_timer = getelementptr inbounds nuw i8, ptr %opaque, i64 1440
  %18 = load ptr, ptr %frame_timer, align 16
  tail call void @timer_del(ptr noundef %18) #17
  %async_bh = getelementptr inbounds nuw i8, ptr %opaque, i64 1448
  %19 = load ptr, ptr %async_bh, align 8
  tail call void @qemu_bh_cancel(ptr noundef %19) #17
  ret void
}